; Function Attrs: mustprogress nofree norecurse nosync nounwind willreturn memory(read, inaccessiblemem: none) uwtable
define dso_local noundef i32 @_ZN5ImGui19TableGetColumnCountEv() local_unnamed_addr #12 {
  %1 = load ptr, ptr @GImGui, align 8, !tbaa !4
  %2 = getelementptr inbounds nuw i8, ptr %1, i64 8536
  %3 = load ptr, ptr %2, align 8, !tbaa !259
  %.not = icmp eq ptr %3, null
  br i1 %.not, label %7, label %4

4:                                                ; preds = %0
  %5 = getelementptr inbounds nuw i8, ptr %3, i64 108
  %6 = load i32, ptr %5, align 4, !tbaa !207
  br label %7

7:                                                ; preds = %0, %4
  %8 = phi i32 [ %6, %4 ], [ 0, %0 ]
  ret i32 %8
}